target datalayout = "e-m:e-p270:32:32-p271:32:32-p272:64:64-i64:64-i128:128-f80:128-n8:16:32:64-S128"
target triple = "x86_64-pc-linux-gnu"

; Function Attrs: inlinehint mustprogress nounwind uwtable
define internal noundef signext i8 @_ZL9U_FAILURE10UErrorCode(i32 noundef %0) #2 {
  %2 = alloca i32, align 4
  store i32 %0, ptr %2, align 4, !tbaa !40
  %3 = load i32, ptr %2, align 4, !tbaa !40
  %4 = icmp sgt i32 %3, 0
  %5 = zext i1 %4 to i8
  ret i8 %5
}

; Function Attrs: mustprogress uwtable
define ptr @utrans_clone_77(ptr noundef %0, ptr noundef %1) #1 {
  %3 = alloca ptr, align 8
  %4 = alloca ptr, align 8
  %5 = alloca ptr, align 8
  %6 = alloca ptr, align 8
  store ptr %0, ptr %4, align 8, !tbaa !8
  store ptr %1, ptr %5, align 8, !tbaa !39
  %7 = load ptr, ptr %5, align 8, !tbaa !39
  %8 = icmp eq ptr %7, null
  br i1 %8, label %14, label %9

9:                                                ; preds = %2
  %10 = load ptr, ptr %5, align 8, !tbaa !39
  %11 = load i32, ptr %10, align 4, !tbaa !40
  %12 = call noundef signext i8 @_ZL9U_FAILURE10UErrorCode(i32 noundef %11)
  %13 = icmp ne i8 %12, 0
  br i1 %13, label %14, label %15

14:                                               ; preds = %9, %2
  store ptr null, ptr %3, align 8
  br label %32

15:                                               ; preds = %9
  %16 = load ptr, ptr %4, align 8, !tbaa !8
  %17 = icmp eq ptr %16, null
  br i1 %17, label %18, label %20

18:                                               ; preds = %15
  %19 = load ptr, ptr %5, align 8, !tbaa !39
  store i32 1, ptr %19, align 4, !tbaa !40
  store ptr null, ptr %3, align 8
  br label %32

20:                                               ; preds = %15
  call void @llvm.lifetime.start.p0(i64 8, ptr %6) #9
  %21 = load ptr, ptr %4, align 8, !tbaa !8
  %22 = load ptr, ptr %21, align 8, !tbaa !12
  %23 = getelementptr inbounds ptr, ptr %22, i64 3
  %24 = load ptr, ptr %23, align 8
  %25 = call noundef ptr %24(ptr noundef nonnull align 8 dereferenceable(84) %21)
  store ptr %25, ptr %6, align 8, !tbaa !42
  %26 = load ptr, ptr %6, align 8, !tbaa !42
  %27 = icmp eq ptr %26, null
  br i1 %27, label %28, label %30

28:                                               ; preds = %20
  %29 = load ptr, ptr %5, align 8, !tbaa !39
  store i32 7, ptr %29, align 4, !tbaa !40
  br label %30

30:                                               ; preds = %28, %20
  %31 = load ptr, ptr %6, align 8, !tbaa !42
  store ptr %31, ptr %3, align 8
  call void @llvm.lifetime.end.p0(i64 8, ptr %6) #9
  br label %32

32:                                               ; preds = %30, %18, %14
  %33 = load ptr, ptr %3, align 8
  ret ptr %33
}