; Function Attrs: mustprogress uwtable
define noundef ptr @utrans_clone_77(ptr noundef %0, ptr noundef %1) local_unnamed_addr #4 {
  %3 = icmp eq ptr %1, null
  br i1 %3, label %15, label %4

4:                                                ; preds = %2
  %5 = load i32, ptr %1, align 4, !tbaa !23
  %6 = icmp slt i32 %5, 1
  br i1 %6, label %7, label %15

7:                                                ; preds = %4
  %8 = icmp eq ptr %0, null
  br i1 %8, label %.sink.split, label %9

9:                                                ; preds = %7
  %10 = load ptr, ptr %0, align 8, !tbaa !3
  %11 = getelementptr inbounds nuw i8, ptr %10, i64 24
  %12 = load ptr, ptr %11, align 8
  %13 = tail call noundef ptr %12(ptr noundef nonnull align 8 dereferenceable(84) %0)
  %14 = icmp eq ptr %13, null
  br i1 %14, label %.sink.split, label %15

.sink.split:                                      ; preds = %9, %7
  %.sink = phi i32 [ 1, %7 ], [ 7, %9 ]
  store i32 %.sink, ptr %1, align 4, !tbaa !23
  br label %15

15:                                               ; preds = %.sink.split, %9, %2, %4
  %.0 = phi ptr [ null, %4 ], [ null, %2 ], [ %13, %9 ], [ null, %.sink.split ]
  ret ptr %.0
}